; Function Attrs: mustprogress uwtable
define dso_local noundef zeroext i1 @_ZN7DepsLog10UpdateDepsEiPNS_4DepsE(ptr noundef nonnull align 8 dereferenceable(96) %0, i32 noundef %1, ptr noundef %2) local_unnamed_addr #1 align 2 personality ptr @__gxx_personality_v0 {
  %4 = getelementptr inbounds nuw i8, ptr %0, i64 72
  %5 = getelementptr inbounds nuw i8, ptr %0, i64 80
  %6 = load ptr, ptr %5, align 8, !tbaa !47
  %7 = load ptr, ptr %4, align 8, !tbaa !26
  %8 = ptrtoint ptr %6 to i64
  %9 = ptrtoint ptr %7 to i64
  %10 = sub i64 %8, %9
  %11 = ashr exact i64 %10, 3
  %12 = trunc i64 %11 to i32
  %.not = icmp slt i32 %1, %12
  br i1 %.not, label %_ZNSt6vectorIPN7DepsLog4DepsESaIS2_EE6resizeEm.exit, label %13

13:                                               ; preds = %3
  %14 = add nsw i32 %1, 1
  %15 = sext i32 %14 to i64
  %16 = icmp ult i64 %11, %15
  br i1 %16, label %17, label %19

17:                                               ; preds = %13
  %18 = sub nuw nsw i64 %15, %11
  tail call void @_ZNSt6vectorIPN7DepsLog4DepsESaIS2_EE17_M_default_appendEm(ptr noundef nonnull align 8 dereferenceable(24) %4, i64 noundef %18)
  %.pre = load ptr, ptr %4, align 8, !tbaa !26
  br label %_ZNSt6vectorIPN7DepsLog4DepsESaIS2_EE6resizeEm.exit

19:                                               ; preds = %13
  %20 = icmp ugt i64 %11, %15
  br i1 %20, label %21, label %_ZNSt6vectorIPN7DepsLog4DepsESaIS2_EE6resizeEm.exit

21:                                               ; preds = %19
  %22 = getelementptr inbounds nuw ptr, ptr %7, i64 %15
  %.not.i.i = icmp eq ptr %6, %22
  br i1 %.not.i.i, label %_ZNSt6vectorIPN7DepsLog4DepsESaIS2_EE6resizeEm.exit, label %23

23:                                               ; preds = %21
  store ptr %22, ptr %5, align 8, !tbaa !47
  br label %_ZNSt6vectorIPN7DepsLog4DepsESaIS2_EE6resizeEm.exit

_ZNSt6vectorIPN7DepsLog4DepsESaIS2_EE6resizeEm.exit: ; preds = %23, %21, %19, %17, %3
  %24 = phi ptr [ %7, %23 ], [ %7, %21 ], [ %7, %19 ], [ %.pre, %17 ], [ %7, %3 ]
  %25 = sext i32 %1 to i64
  %26 = getelementptr inbounds nuw ptr, ptr %24, i64 %25
  %27 = load ptr, ptr %26, align 8, !tbaa !62
  %28 = icmp ne ptr %27, null
  br i1 %28, label %29, label %34

29:                                               ; preds = %_ZNSt6vectorIPN7DepsLog4DepsESaIS2_EE6resizeEm.exit
  %30 = getelementptr inbounds nuw i8, ptr %27, i64 16
  %31 = load ptr, ptr %30, align 8, !tbaa !67
  %32 = icmp eq ptr %31, null
  br i1 %32, label %_ZN7DepsLog4DepsD2Ev.exit, label %33

33:                                               ; preds = %29
  tail call void @_ZdaPv(ptr noundef nonnull %31) #22
  br label %_ZN7DepsLog4DepsD2Ev.exit

_ZN7DepsLog4DepsD2Ev.exit:                        ; preds = %29, %33
  tail call void @_ZdlPvm(ptr noundef nonnull %27, i64 noundef 24) #22
  %.pre9 = load ptr, ptr %4, align 8, !tbaa !26
  br label %34

34:                                               ; preds = %_ZN7DepsLog4DepsD2Ev.exit, %_ZNSt6vectorIPN7DepsLog4DepsESaIS2_EE6resizeEm.exit
  %35 = phi ptr [ %.pre9, %_ZN7DepsLog4DepsD2Ev.exit ], [ %24, %_ZNSt6vectorIPN7DepsLog4DepsESaIS2_EE6resizeEm.exit ]
  %36 = getelementptr inbounds nuw ptr, ptr %35, i64 %25
  store ptr %2, ptr %36, align 8, !tbaa !62
  ret i1 %28
}